target datalayout = "e-m:e-p270:32:32-p271:32:32-p272:64:64-i64:64-i128:128-f80:128-n8:16:32:64-S128"
target triple = "x86_64-pc-linux-gnu"

%struct.block_record_t = type { i32, ptr, ptr, ptr, i16 }

@blocks_nodes_bitmap = external global ptr, align 8
@block_record_cnt = external global i32, align 4
@block_record_table = external global ptr, align 8
@bblock_node_cnt = external global i16, align 2
@block_sizes = external global [16 x i32], align 16
@block_sizes_cnt = external global i16, align 2
@blocks_nodes_cnt = external global i32, align 4

; Function Attrs: nounwind uwtable
define dso_local i32 @topology_p_get_fragmentation(ptr noundef %0) #0 {
  %2 = alloca ptr, align 8
  %3 = alloca i32, align 4
  %4 = alloca [16 x i8], align 16
  %5 = alloca i32, align 4
  %6 = alloca i32, align 4
  %7 = alloca i32, align 4
  %8 = alloca i32, align 4
  store ptr %0, ptr %2, align 8
  call void @llvm.lifetime.start.p0(i64 4, ptr %3) #8
  store i32 0, ptr %3, align 4
  call void @llvm.lifetime.start.p0(i64 16, ptr %4) #8
  call void @llvm.memset.p0.i64(ptr align 16 %4, i8 0, i64 16, i1 false)
  call void @llvm.lifetime.start.p0(i64 4, ptr %5) #8
  store i32 0, ptr %5, align 4
  br label %9

9:                                                ; preds = %105, %1
  %10 = load i32, ptr %5, align 4
  %11 = load i32, ptr @block_record_cnt, align 4
  %12 = icmp slt i32 %10, %11
  br i1 %12, label %14, label %13

13:                                               ; preds = %9
  store i32 2, ptr %6, align 4
  call void @llvm.lifetime.end.p0(i64 4, ptr %5) #8
  br label %108

14:                                               ; preds = %9
  %15 = load ptr, ptr @block_record_table, align 8
  %16 = load i32, ptr %5, align 4
  %17 = sext i32 %16 to i64
  %18 = getelementptr inbounds %struct.block_record_t, ptr %15, i64 %17
  %19 = getelementptr inbounds nuw %struct.block_record_t, ptr %18, i32 0, i32 2
  %20 = load ptr, ptr %19, align 8
  %21 = load ptr, ptr %2, align 8
  %22 = call i32 @slurm_bit_overlap(ptr noundef %20, ptr noundef %21)
  %23 = load i16, ptr @bblock_node_cnt, align 2
  %24 = zext i16 %23 to i32
  %25 = icmp sge i32 %22, %24
  br i1 %25, label %26, label %59

26:                                               ; preds = %14
  call void @llvm.lifetime.start.p0(i64 4, ptr %7) #8
  store i32 1, ptr %7, align 4
  br label %27

27:                                               ; preds = %55, %26
  %28 = load i32, ptr %7, align 4
  %29 = load i16, ptr @block_sizes_cnt, align 2
  %30 = zext i16 %29 to i32
  %31 = icmp slt i32 %28, %30
  br i1 %31, label %33, label %32

32:                                               ; preds = %27
  store i32 5, ptr %6, align 4
  call void @llvm.lifetime.end.p0(i64 4, ptr %7) #8
  br label %58

33:                                               ; preds = %27
  %34 = load i32, ptr %5, align 4
  %35 = load i32, ptr %7, align 4
  %36 = sext i32 %35 to i64
  %37 = getelementptr inbounds [16 x i32], ptr @block_sizes, i64 0, i64 %36
  %38 = load i32, ptr %37, align 4
  %39 = urem i32 %34, %38
  %40 = icmp ne i32 %39, 0
  br i1 %40, label %54, label %41

41:                                               ; preds = %33
  %42 = load i32, ptr %7, align 4
  %43 = sext i32 %42 to i64
  %44 = getelementptr inbounds [16 x i32], ptr @block_sizes, i64 0, i64 %43
  %45 = load i32, ptr %44, align 4
  %46 = load i32, ptr @block_record_cnt, align 4
  %47 = load i32, ptr %5, align 4
  %48 = sub nsw i32 %46, %47
  %49 = icmp ule i32 %45, %48
  br i1 %49, label %50, label %54

50:                                               ; preds = %41
  %51 = load i32, ptr %7, align 4
  %52 = sext i32 %51 to i64
  %53 = getelementptr inbounds [16 x i8], ptr %4, i64 0, i64 %52
  store i8 1, ptr %53, align 1
  br label %54

54:                                               ; preds = %50, %41, %33
  br label %55

55:                                               ; preds = %54
  %56 = load i32, ptr %7, align 4
  %57 = add nsw i32 %56, 1
  store i32 %57, ptr %7, align 4
  br label %27, !llvm.loop !24

58:                                               ; preds = %32
  br label %104

59:                                               ; preds = %14
  call void @llvm.lifetime.start.p0(i64 4, ptr %8) #8
  store i32 0, ptr %8, align 4
  br label %60

60:                                               ; preds = %100, %59
  %61 = load i32, ptr %8, align 4
  %62 = load i16, ptr @block_sizes_cnt, align 2
  %63 = zext i16 %62 to i32
  %64 = icmp slt i32 %61, %63
  br i1 %64, label %66, label %65

65:                                               ; preds = %60
  store i32 8, ptr %6, align 4
  call void @llvm.lifetime.end.p0(i64 4, ptr %8) #8
  br label %103

66:                                               ; preds = %60
  %67 = load i32, ptr %8, align 4
  %68 = sext i32 %67 to i64
  %69 = getelementptr inbounds [16 x i8], ptr %4, i64 0, i64 %68
  %70 = load i8, ptr %69, align 1, !range !15, !noundef !16
  %71 = trunc i8 %70 to i1
  br i1 %71, label %89, label %72

72:                                               ; preds = %66
  %73 = load i32, ptr %5, align 4
  %74 = load i32, ptr %8, align 4
  %75 = sext i32 %74 to i64
  %76 = getelementptr inbounds [16 x i32], ptr @block_sizes, i64 0, i64 %75
  %77 = load i32, ptr %76, align 4
  %78 = urem i32 %73, %77
  %79 = icmp ne i32 %78, 0
  br i1 %79, label %99, label %80

80:                                               ; preds = %72
  %81 = load i32, ptr %8, align 4
  %82 = sext i32 %81 to i64
  %83 = getelementptr inbounds [16 x i32], ptr @block_sizes, i64 0, i64 %82
  %84 = load i32, ptr %83, align 4
  %85 = load i32, ptr @block_record_cnt, align 4
  %86 = load i32, ptr %5, align 4
  %87 = sub nsw i32 %85, %86
  %88 = icmp ule i32 %84, %87
  br i1 %88, label %89, label %99

89:                                               ; preds = %80, %66
  %90 = load i32, ptr %8, align 4
  %91 = sext i32 %90 to i64
  %92 = getelementptr inbounds [16 x i32], ptr @block_sizes, i64 0, i64 %91
  %93 = load i32, ptr %92, align 4
  %94 = load i32, ptr %3, align 4
  %95 = add i32 %94, %93
  store i32 %95, ptr %3, align 4
  %96 = load i32, ptr %8, align 4
  %97 = sext i32 %96 to i64
  %98 = getelementptr inbounds [16 x i8], ptr %4, i64 0, i64 %97
  store i8 0, ptr %98, align 1
  br label %99

99:                                               ; preds = %89, %80, %72
  br label %100

100:                                              ; preds = %99
  %101 = load i32, ptr %8, align 4
  %102 = add nsw i32 %101, 1
  store i32 %102, ptr %8, align 4
  br label %60, !llvm.loop !25

103:                                              ; preds = %65
  br label %104

104:                                              ; preds = %103, %58
  br label %105

105:                                              ; preds = %104
  %106 = load i32, ptr %5, align 4
  %107 = add nsw i32 %106, 1
  store i32 %107, ptr %5, align 4
  br label %9, !llvm.loop !26

108:                                              ; preds = %13
  %109 = load i16, ptr @bblock_node_cnt, align 2
  %110 = zext i16 %109 to i32
  %111 = load i32, ptr %3, align 4
  %112 = mul i32 %111, %110
  store i32 %112, ptr %3, align 4
  %113 = load i32, ptr @blocks_nodes_cnt, align 4
  %114 = load i32, ptr %3, align 4
  %115 = add i32 %114, %113
  store i32 %115, ptr %3, align 4
  %116 = load ptr, ptr %2, align 8
  %117 = load ptr, ptr @blocks_nodes_bitmap, align 8
  %118 = call i32 @slurm_bit_overlap(ptr noundef %116, ptr noundef %117)
  %119 = load i32, ptr %3, align 4
  %120 = sub i32 %119, %118
  store i32 %120, ptr %3, align 4
  %121 = load i32, ptr %3, align 4
  store i32 1, ptr %6, align 4
  call void @llvm.lifetime.end.p0(i64 16, ptr %4) #8
  call void @llvm.lifetime.end.p0(i64 4, ptr %3) #8
  ret i32 %121
}