; Function Attrs: nounwind uwtable
define dso_local i32 @topology_p_get_fragmentation(ptr noundef %0) local_unnamed_addr #0 {
  %2 = alloca [16 x i8], align 16
  call void @llvm.lifetime.start.p0(i64 16, ptr nonnull %2) #9
  call void @llvm.memset.p0.i64(ptr noundef nonnull align 16 dereferenceable(16) %2, i8 0, i64 16, i1 false)
  %3 = load i32, ptr @block_record_cnt, align 4
  %4 = icmp sgt i32 %3, 0
  br i1 %4, label %.lr.ph41, label %.._crit_edge_crit_edge

.._crit_edge_crit_edge:                           ; preds = %1
  %.pre58 = load i16, ptr @bblock_node_cnt, align 2
  %.pre59 = zext i16 %.pre58 to i32
  br label %._crit_edge

._crit_edge:                                      ; preds = %.loopexit, %.._crit_edge_crit_edge
  %.pre-phi = phi i32 [ %.pre59, %.._crit_edge_crit_edge ], [ %16, %.loopexit ]
  %.027.lcssa = phi i32 [ 0, %.._crit_edge_crit_edge ], [ %.3, %.loopexit ]
  %5 = mul i32 %.027.lcssa, %.pre-phi
  %6 = load i32, ptr @blocks_nodes_cnt, align 4
  %7 = add i32 %5, %6
  %8 = load ptr, ptr @blocks_nodes_bitmap, align 8
  %9 = tail call i32 @slurm_bit_overlap(ptr noundef %0, ptr noundef %8) #9
  %10 = sub i32 %7, %9
  call void @llvm.lifetime.end.p0(i64 16, ptr nonnull %2) #9
  ret i32 %10

.lr.ph41:                                         ; preds = %1, %.loopexit
  %indvars.iv52 = phi i64 [ %indvars.iv.next53, %.loopexit ], [ 0, %1 ]
  %.02738 = phi i32 [ %.3, %.loopexit ], [ 0, %1 ]
  %indvars54 = trunc i64 %indvars.iv52 to i32
  %11 = load ptr, ptr @block_record_table, align 8
  %12 = getelementptr inbounds nuw %struct.block_record_t, ptr %11, i64 %indvars.iv52, i32 2
  %13 = load ptr, ptr %12, align 8
  %14 = tail call i32 @slurm_bit_overlap(ptr noundef %13, ptr noundef %0) #9
  %15 = load i16, ptr @bblock_node_cnt, align 2
  %16 = zext i16 %15 to i32
  %.not = icmp slt i32 %14, %16
  %17 = load i16, ptr @block_sizes_cnt, align 2
  %.pre57 = load i32, ptr @block_record_cnt, align 4
  br i1 %.not, label %.preheader, label %.preheader32

.preheader32:                                     ; preds = %.lr.ph41
  %18 = icmp ugt i16 %17, 1
  br i1 %18, label %.lr.ph, label %.loopexit

.lr.ph:                                           ; preds = %.preheader32
  %19 = sub nsw i32 %.pre57, %indvars54
  %wide.trip.count = zext i16 %17 to i64
  br label %21

.preheader:                                       ; preds = %.lr.ph41
  %.not44 = icmp eq i16 %17, 0
  br i1 %.not44, label %.loopexit, label %.lr.ph37

.lr.ph37:                                         ; preds = %.preheader
  %20 = sub nsw i32 %.pre57, %indvars54
  %wide.trip.count50 = zext i16 %17 to i64
  br label %28

21:                                               ; preds = %.lr.ph, %27
  %indvars.iv = phi i64 [ 1, %.lr.ph ], [ %indvars.iv.next, %27 ]
  %22 = getelementptr inbounds nuw [16 x i32], ptr @block_sizes, i64 0, i64 %indvars.iv
  %23 = load i32, ptr %22, align 4
  %24 = urem i32 %indvars54, %23
  %.not30 = icmp ne i32 %24, 0
  %.not31 = icmp ugt i32 %23, %19
  %or.cond = select i1 %.not30, i1 true, i1 %.not31
  br i1 %or.cond, label %27, label %25

25:                                               ; preds = %21
  %26 = getelementptr inbounds nuw [16 x i8], ptr %2, i64 0, i64 %indvars.iv
  store i8 1, ptr %26, align 1
  br label %27

27:                                               ; preds = %21, %25
  %indvars.iv.next = add nuw nsw i64 %indvars.iv, 1
  %exitcond.not = icmp eq i64 %indvars.iv.next, %wide.trip.count
  br i1 %exitcond.not, label %.loopexit, label %21, !llvm.loop !24

28:                                               ; preds = %.lr.ph37, %35
  %indvars.iv47 = phi i64 [ 0, %.lr.ph37 ], [ %indvars.iv.next48, %35 ]
  %.135 = phi i32 [ %.02738, %.lr.ph37 ], [ %.2, %35 ]
  %29 = getelementptr inbounds nuw [16 x i8], ptr %2, i64 0, i64 %indvars.iv47
  %30 = load i8, ptr %29, align 1, !range !15, !noundef !16
  %31 = trunc nuw i8 %30 to i1
  %.phi.trans.insert = getelementptr inbounds nuw [16 x i32], ptr @block_sizes, i64 0, i64 %indvars.iv47
  %.pre = load i32, ptr %.phi.trans.insert, align 4
  br i1 %31, label %._crit_edge55, label %32

32:                                               ; preds = %28
  %33 = urem i32 %indvars54, %.pre
  %.not28 = icmp ne i32 %33, 0
  %.not29 = icmp ugt i32 %.pre, %20
  %or.cond43 = select i1 %.not28, i1 true, i1 %.not29
  br i1 %or.cond43, label %35, label %._crit_edge55

._crit_edge55:                                    ; preds = %28, %32
  %34 = add i32 %.pre, %.135
  store i8 0, ptr %29, align 1
  br label %35

35:                                               ; preds = %32, %._crit_edge55
  %.2 = phi i32 [ %34, %._crit_edge55 ], [ %.135, %32 ]
  %indvars.iv.next48 = add nuw nsw i64 %indvars.iv47, 1
  %exitcond51.not = icmp eq i64 %indvars.iv.next48, %wide.trip.count50
  br i1 %exitcond51.not, label %.loopexit, label %28, !llvm.loop !25

.loopexit:                                        ; preds = %27, %35, %.preheader32, %.preheader
  %.3 = phi i32 [ %.02738, %.preheader ], [ %.02738, %.preheader32 ], [ %.2, %35 ], [ %.02738, %27 ]
  %indvars.iv.next53 = add nuw nsw i64 %indvars.iv52, 1
  %36 = sext i32 %.pre57 to i64
  %37 = icmp slt i64 %indvars.iv.next53, %36
  br i1 %37, label %.lr.ph41, label %._crit_edge, !llvm.loop !26
}